target datalayout = "e-m:e-p270:32:32-p271:32:32-p272:64:64-i64:64-i128:128-f80:128-n8:16:32:64-S128"
target triple = "x86_64-pc-linux-gnu"

%"class.std::filesystem::__cxx11::path" = type { %"class.std::__cxx11::basic_string", %"struct.std::filesystem::__cxx11::path::_List" }
%"class.std::__cxx11::basic_string" = type { %"struct.std::__cxx11::basic_string<char>::_Alloc_hider", i64, %union.anon }
%"struct.std::__cxx11::basic_string<char>::_Alloc_hider" = type { ptr }
%union.anon = type { i64, [8 x i8] }
%"struct.std::filesystem::__cxx11::path::_List" = type { %"class.std::unique_ptr" }
%"class.std::unique_ptr" = type { %"struct.std::__uniq_ptr_data" }
%"struct.std::__uniq_ptr_data" = type { %"class.std::__uniq_ptr_impl" }
%"class.std::__uniq_ptr_impl" = type { %"class.std::tuple" }
%"class.std::tuple" = type { %"struct.std::_Tuple_impl" }
%"struct.std::_Tuple_impl" = type { %"struct.std::_Head_base.1" }
%"struct.std::_Head_base.1" = type { ptr }

@.str = private unnamed_addr constant [125 x i8] c"generated/home/dtcxzyw/WorkSpace/Projects/compilers/llvm-opt-benchmark/bench/gromacs/gromacs/src/gromacs/utility/smalloc.cpp\00", align 1
@.str.3 = private unnamed_addr constant [92 x i8] c"Not enough memory. Failed to realloc %zu bytes for %s, %s=%p\0A(called from file %s, line %d)\00", align 1

; Function Attrs: mustprogress nounwind uwtable
define void @_Z9save_freePKcS0_iPv(ptr noundef %0, ptr noundef %1, i32 noundef %2, ptr noundef %3) #4 {
  %5 = alloca ptr, align 8
  %6 = alloca ptr, align 8
  %7 = alloca i32, align 4
  %8 = alloca ptr, align 8
  store ptr %0, ptr %5, align 8
  store ptr %1, ptr %6, align 8
  store i32 %2, ptr %7, align 4
  store ptr %3, ptr %8, align 8
  %9 = load ptr, ptr %8, align 8
  %10 = icmp ne ptr %9, null
  br i1 %10, label %11, label %13

11:                                               ; preds = %4
  %12 = load ptr, ptr %8, align 8
  call void @free(ptr noundef %12) #16
  br label %13

13:                                               ; preds = %11, %4
  ret void
}

; Function Attrs: mustprogress uwtable
define noundef ptr @_Z12save_reallocPKcS0_iPvmm(ptr noundef %0, ptr noundef %1, i32 noundef %2, ptr noundef %3, i64 noundef %4, i64 noundef %5) #0 personality ptr @__gxx_personality_v0 {
  %7 = alloca ptr, align 8
  %8 = alloca ptr, align 8
  %9 = alloca i32, align 4
  %10 = alloca ptr, align 8
  %11 = alloca i64, align 8
  %12 = alloca i64, align 8
  %13 = alloca ptr, align 8
  %14 = alloca i64, align 8
  %15 = alloca %"class.std::filesystem::__cxx11::path", align 8
  %16 = alloca ptr, align 8
  %17 = alloca i32, align 4
  store ptr %0, ptr %7, align 8
  store ptr %1, ptr %8, align 8
  store i32 %2, ptr %9, align 4
  store ptr %3, ptr %10, align 8
  store i64 %4, ptr %11, align 8
  store i64 %5, ptr %12, align 8
  store ptr null, ptr %13, align 8
  %18 = load i64, ptr %11, align 8
  %19 = load i64, ptr %12, align 8
  %20 = mul i64 %18, %19
  store i64 %20, ptr %14, align 8
  %21 = load i64, ptr %14, align 8
  %22 = icmp eq i64 %21, 0
  br i1 %22, label %23, label %28

23:                                               ; preds = %6
  %24 = load ptr, ptr %7, align 8
  %25 = load ptr, ptr %8, align 8
  %26 = load i32, ptr %9, align 4
  %27 = load ptr, ptr %10, align 8
  call void @_Z9save_freePKcS0_iPv(ptr noundef %24, ptr noundef %25, i32 noundef %26, ptr noundef %27)
  br label %56

28:                                               ; preds = %6
  %29 = load ptr, ptr %10, align 8
  %30 = icmp eq ptr %29, null
  br i1 %30, label %31, label %34

31:                                               ; preds = %28
  %32 = load i64, ptr %14, align 8
  %33 = call noalias ptr @malloc(i64 noundef %32) #13
  store ptr %33, ptr %13, align 8
  br label %38

34:                                               ; preds = %28
  %35 = load ptr, ptr %10, align 8
  %36 = load i64, ptr %14, align 8
  %37 = call ptr @realloc(ptr noundef %35, i64 noundef %36) #19
  store ptr %37, ptr %13, align 8
  br label %38

38:                                               ; preds = %34, %31
  %39 = load ptr, ptr %13, align 8
  %40 = icmp eq ptr %39, null
  br i1 %40, label %41, label %55

41:                                               ; preds = %38
  %42 = call ptr @__errno_location() #14
  %43 = load i32, ptr %42, align 4
  call void @_ZNSt10filesystem7__cxx114pathC2IA125_cS1_EERKT_NS1_6formatE(ptr noundef nonnull align 8 dereferenceable(40) %15, ptr noundef nonnull align 1 dereferenceable(125) @.str, i8 noundef zeroext 2)
  %44 = load i64, ptr %14, align 8
  %45 = load ptr, ptr %7, align 8
  %46 = load ptr, ptr %7, align 8
  %47 = load ptr, ptr %10, align 8
  %48 = load ptr, ptr %8, align 8
  %49 = load i32, ptr %9, align 4
  invoke void (i32, ptr, i32, ptr, ...) @_Z9gmx_fataliRKNSt10filesystem7__cxx114pathEiPKcz(i32 noundef %43, ptr noundef nonnull align 8 dereferenceable(40) %15, i32 noundef 180, ptr noundef @.str.3, i64 noundef %44, ptr noundef %45, ptr noundef %46, ptr noundef %47, ptr noundef %48, i32 noundef %49) #15
          to label %50 unwind label %51

50:                                               ; preds = %41
  unreachable

51:                                               ; preds = %41
  %52 = landingpad { ptr, i32 }
          cleanup
  %53 = extractvalue { ptr, i32 } %52, 0
  store ptr %53, ptr %16, align 8
  %54 = extractvalue { ptr, i32 } %52, 1
  store i32 %54, ptr %17, align 4
  call void @_ZNSt10filesystem7__cxx114pathD2Ev(ptr noundef nonnull align 8 dereferenceable(40) %15) #16
  br label %58

55:                                               ; preds = %38
  br label %56

56:                                               ; preds = %55, %23
  %57 = load ptr, ptr %13, align 8
  ret ptr %57

58:                                               ; preds = %51
  %59 = load ptr, ptr %16, align 8
  %60 = load i32, ptr %17, align 4
  %61 = insertvalue { ptr, i32 } poison, ptr %59, 0
  %62 = insertvalue { ptr, i32 } %61, i32 %60, 1
  resume { ptr, i32 } %62
}