; Function Attrs: mustprogress uwtable
define noundef ptr @_Z12save_reallocPKcS0_iPvmm(ptr noundef %0, ptr noundef %1, i32 noundef %2, ptr noundef %3, i64 noundef %4, i64 noundef %5) local_unnamed_addr #0 personality ptr @__gxx_personality_v0 {
  %7 = alloca %"class.std::filesystem::__cxx11::path", align 8
  %8 = mul i64 %5, %4
  %9 = icmp eq i64 %8, 0
  %.not.i = icmp eq ptr %3, null
  br i1 %9, label %10, label %12

10:                                               ; preds = %6
  br i1 %.not.i, label %_Z9save_freePKcS0_iPv.exit, label %11

11:                                               ; preds = %10
  tail call void @free(ptr noundef nonnull %3) #18
  br label %_Z9save_freePKcS0_iPv.exit

12:                                               ; preds = %6
  br i1 %.not.i, label %13, label %15

13:                                               ; preds = %12
  %14 = tail call noalias ptr @malloc(i64 noundef %8) #20
  br label %17

15:                                               ; preds = %12
  %16 = tail call ptr @realloc(ptr noundef nonnull %3, i64 noundef %8) #21
  br label %17

17:                                               ; preds = %15, %13
  %.0 = phi ptr [ %14, %13 ], [ %16, %15 ]
  %18 = icmp eq ptr %.0, null
  br i1 %18, label %19, label %_Z9save_freePKcS0_iPv.exit

19:                                               ; preds = %17
  %20 = tail call ptr @__errno_location() #16
  %21 = load i32, ptr %20, align 4
  call void @_ZNSt10filesystem7__cxx114pathC2IA125_cS1_EERKT_NS1_6formatE(ptr noundef nonnull align 8 dereferenceable(40) %7, ptr noundef nonnull align 1 dereferenceable(125) @.str, i8 noundef zeroext 2)
  invoke void (i32, ptr, i32, ptr, ...) @_Z9gmx_fataliRKNSt10filesystem7__cxx114pathEiPKcz(i32 noundef %21, ptr noundef nonnull align 8 dereferenceable(40) %7, i32 noundef 180, ptr noundef nonnull @.str.3, i64 noundef %8, ptr noundef %0, ptr noundef %0, ptr noundef %3, ptr noundef %1, i32 noundef %2) #17
          to label %22 unwind label %23

22:                                               ; preds = %19
  unreachable

23:                                               ; preds = %19
  %24 = landingpad { ptr, i32 }
          cleanup
  call void @_ZNSt10filesystem7__cxx114pathD2Ev(ptr noundef nonnull align 8 dereferenceable(40) %7) #18
  resume { ptr, i32 } %24

_Z9save_freePKcS0_iPv.exit:                       ; preds = %11, %10, %17
  %.1 = phi ptr [ %.0, %17 ], [ null, %10 ], [ null, %11 ]
  ret ptr %.1
}